target datalayout = "e-m:e-p270:32:32-p271:32:32-p272:64:64-i64:64-i128:128-f80:128-n8:16:32:64-S128"
target triple = "x86_64-pc-linux-gnu"

; Function Attrs: mustprogress uwtable
define void @_ZN10open_spiel10algorithms12FSICFRSolver13RunIterationsEi(ptr noundef nonnull align 8 dereferenceable(5072) %0, i32 noundef %1) #4 align 2 {
  %3 = alloca ptr, align 8
  %4 = alloca i32, align 4
  %5 = alloca i32, align 4
  store ptr %0, ptr %3, align 8
  store i32 %1, ptr %4, align 4
  %6 = load ptr, ptr %3, align 8
  store i32 0, ptr %5, align 4
  br label %7

7:                                                ; preds = %12, %2
  %8 = load i32, ptr %5, align 4
  %9 = load i32, ptr %4, align 4
  %10 = icmp slt i32 %8, %9
  br i1 %10, label %11, label %15

11:                                               ; preds = %7
  call void @_ZN10open_spiel10algorithms12FSICFRSolver12RunIterationEv(ptr noundef nonnull align 8 dereferenceable(5072) %6)
  br label %12

12:                                               ; preds = %11
  %13 = load i32, ptr %5, align 4
  %14 = add nsw i32 %13, 1
  store i32 %14, ptr %5, align 4
  br label %7, !llvm.loop !15

15:                                               ; preds = %7
  ret void
}