; Function Attrs: mustprogress uwtable
define void @_ZN10open_spiel10algorithms12FSICFRSolver13RunIterationsEi(ptr noundef nonnull align 8 dereferenceable(5072) %0, i32 noundef %1) local_unnamed_addr #3 align 2 {
  %3 = icmp sgt i32 %1, 0
  br i1 %3, label %.lr.ph, label %._crit_edge

.lr.ph:                                           ; preds = %2, %.lr.ph
  %.03 = phi i32 [ %4, %.lr.ph ], [ 0, %2 ]
  tail call void @_ZN10open_spiel10algorithms12FSICFRSolver12RunIterationEv(ptr noundef nonnull align 8 dereferenceable(5072) %0)
  %4 = add nuw nsw i32 %.03, 1
  %exitcond.not = icmp eq i32 %4, %1
  br i1 %exitcond.not, label %._crit_edge, label %.lr.ph, !llvm.loop !36

._crit_edge:                                      ; preds = %.lr.ph, %2
  ret void
}